target datalayout = "e-m:e-p270:32:32-p271:32:32-p272:64:64-i64:64-i128:128-f80:128-n8:16:32:64-S128"
target triple = "x86_64-pc-linux-gnu"

%struct.nid_triple = type { i32, i32, i32 }

@sig_lock = internal global ptr null, align 8
@.str = private unnamed_addr constant [37 x i8] c"../openssl/crypto/objects/obj_xref.c\00", align 1
@sig_app = internal global ptr null, align 8
@__func__.ossl_obj_find_sigid_algs = private unnamed_addr constant [25 x i8] c"ossl_obj_find_sigid_algs\00", align 1
@sig_init = internal global i32 0, align 4
@o_sig_init_ossl_ret_ = internal global i32 0, align 4

; Function Attrs: inlinehint nounwind uwtable
define internal ptr @sk_nid_triple_value(ptr noundef %0, i32 noundef %1) #2 {
  %3 = alloca ptr, align 8
  %4 = alloca i32, align 4
  store ptr %0, ptr %3, align 8, !tbaa !13
  store i32 %1, ptr %4, align 4, !tbaa !3
  %5 = load ptr, ptr %3, align 8, !tbaa !13
  %6 = load i32, ptr %4, align 4, !tbaa !3
  %7 = call ptr @OPENSSL_sk_value(ptr noundef %5, i32 noundef %6)
  ret ptr %7
}

; Function Attrs: inlinehint nounwind uwtable
define internal i32 @sk_nid_triple_find(ptr noundef %0, ptr noundef %1) #2 {
  %3 = alloca ptr, align 8
  %4 = alloca ptr, align 8
  store ptr %0, ptr %3, align 8, !tbaa !13
  store ptr %1, ptr %4, align 8, !tbaa !12
  %5 = load ptr, ptr %3, align 8, !tbaa !13
  %6 = load ptr, ptr %4, align 8, !tbaa !12
  %7 = call i32 @OPENSSL_sk_find(ptr noundef %5, ptr noundef %6)
  ret i32 %7
}

; Function Attrs: inlinehint nounwind uwtable
define internal i32 @obj_sig_init() #2 {
  %1 = call i32 @CRYPTO_THREAD_run_once(ptr noundef @sig_init, ptr noundef @o_sig_init_ossl_)
  %2 = icmp ne i32 %1, 0
  br i1 %2, label %3, label %5

3:                                                ; preds = %0
  %4 = load i32, ptr @o_sig_init_ossl_ret_, align 4, !tbaa !3
  br label %6

5:                                                ; preds = %0
  br label %6

6:                                                ; preds = %5, %3
  %7 = phi i32 [ %4, %3 ], [ 0, %5 ]
  ret i32 %7
}

; Function Attrs: nounwind uwtable
define internal ptr @OBJ_bsearch_sig(ptr noundef %0, ptr noundef %1, i32 noundef %2) #0 {
  %4 = alloca ptr, align 8
  %5 = alloca ptr, align 8
  %6 = alloca i32, align 4
  store ptr %0, ptr %4, align 8, !tbaa !12
  store ptr %1, ptr %5, align 8, !tbaa !12
  store i32 %2, ptr %6, align 4, !tbaa !3
  %7 = load ptr, ptr %4, align 8, !tbaa !12
  %8 = load ptr, ptr %5, align 8, !tbaa !12
  %9 = load i32, ptr %6, align 4, !tbaa !3
  %10 = call ptr @OBJ_bsearch_(ptr noundef %7, ptr noundef %8, i32 noundef %9, i32 noundef 12, ptr noundef @sig_cmp_BSEARCH_CMP_FN)
  ret ptr %10
}

; Function Attrs: nounwind uwtable
define internal i32 @ossl_obj_find_sigid_algs(i32 noundef %0, ptr noundef %1, ptr noundef %2, i32 noundef %3) #0 {
  %5 = alloca i32, align 4
  %6 = alloca i32, align 4
  %7 = alloca ptr, align 8
  %8 = alloca ptr, align 8
  %9 = alloca i32, align 4
  %10 = alloca %struct.nid_triple, align 4
  %11 = alloca ptr, align 8
  %12 = alloca i32, align 4
  %13 = alloca i32, align 4
  store i32 %0, ptr %6, align 4, !tbaa !3
  store ptr %1, ptr %7, align 8, !tbaa !7
  store ptr %2, ptr %8, align 8, !tbaa !7
  store i32 %3, ptr %9, align 4, !tbaa !3
  call void @llvm.lifetime.start.p0(i64 12, ptr %10) #4
  call void @llvm.lifetime.start.p0(i64 8, ptr %11) #4
  call void @llvm.lifetime.start.p0(i64 4, ptr %12) #4
  %14 = load i32, ptr %6, align 4, !tbaa !3
  %15 = icmp eq i32 %14, 0
  br i1 %15, label %16, label %17

16:                                               ; preds = %4
  store i32 0, ptr %5, align 4
  store i32 1, ptr %13, align 4
  br label %76

17:                                               ; preds = %4
  %18 = load i32, ptr %6, align 4, !tbaa !3
  %19 = getelementptr inbounds nuw %struct.nid_triple, ptr %10, i32 0, i32 0
  store i32 %18, ptr %19, align 4, !tbaa !10
  %20 = call ptr @OBJ_bsearch_sig(ptr noundef %10, ptr noundef @sigoid_srt, i32 noundef 56)
  store ptr %20, ptr %11, align 8, !tbaa !12
  %21 = load ptr, ptr %11, align 8, !tbaa !12
  %22 = icmp eq ptr %21, null
  br i1 %22, label %23, label %59

23:                                               ; preds = %17
  %24 = call i32 @obj_sig_init()
  %25 = icmp ne i32 %24, 0
  br i1 %25, label %27, label %26

26:                                               ; preds = %23
  store i32 0, ptr %5, align 4
  store i32 1, ptr %13, align 4
  br label %76

27:                                               ; preds = %23
  %28 = load i32, ptr %9, align 4, !tbaa !3
  %29 = icmp ne i32 %28, 0
  br i1 %29, label %30, label %35

30:                                               ; preds = %27
  %31 = load ptr, ptr @sig_lock, align 8, !tbaa !12
  %32 = call i32 @CRYPTO_THREAD_read_lock(ptr noundef %31)
  %33 = icmp ne i32 %32, 0
  br i1 %33, label %35, label %34

34:                                               ; preds = %30
  call void @ERR_new()
  call void @ERR_set_debug(ptr noundef @.str, i32 noundef 82, ptr noundef @__func__.ossl_obj_find_sigid_algs)
  call void (i32, i32, ptr, ...) @ERR_set_error(i32 noundef 8, i32 noundef 786703, ptr noundef null)
  store i32 0, ptr %5, align 4
  store i32 1, ptr %13, align 4
  br label %76

35:                                               ; preds = %30, %27
  %36 = load ptr, ptr @sig_app, align 8, !tbaa !13
  %37 = icmp ne ptr %36, null
  br i1 %37, label %38, label %48

38:                                               ; preds = %35
  %39 = load ptr, ptr @sig_app, align 8, !tbaa !13
  %40 = call i32 @sk_nid_triple_find(ptr noundef %39, ptr noundef %10)
  store i32 %40, ptr %12, align 4, !tbaa !3
  %41 = load i32, ptr %12, align 4, !tbaa !3
  %42 = icmp sge i32 %41, 0
  br i1 %42, label %43, label %47

43:                                               ; preds = %38
  %44 = load ptr, ptr @sig_app, align 8, !tbaa !13
  %45 = load i32, ptr %12, align 4, !tbaa !3
  %46 = call ptr @sk_nid_triple_value(ptr noundef %44, i32 noundef %45)
  store ptr %46, ptr %11, align 8, !tbaa !12
  br label %47

47:                                               ; preds = %43, %38
  br label %48

48:                                               ; preds = %47, %35
  %49 = load i32, ptr %9, align 4, !tbaa !3
  %50 = icmp ne i32 %49, 0
  br i1 %50, label %51, label %54

51:                                               ; preds = %48
  %52 = load ptr, ptr @sig_lock, align 8, !tbaa !12
  %53 = call i32 @CRYPTO_THREAD_unlock(ptr noundef %52)
  br label %54

54:                                               ; preds = %51, %48
  %55 = load ptr, ptr %11, align 8, !tbaa !12
  %56 = icmp eq ptr %55, null
  br i1 %56, label %57, label %58

57:                                               ; preds = %54
  store i32 0, ptr %5, align 4
  store i32 1, ptr %13, align 4
  br label %76

58:                                               ; preds = %54
  br label %59

59:                                               ; preds = %58, %17
  %60 = load ptr, ptr %7, align 8, !tbaa !7
  %61 = icmp ne ptr %60, null
  br i1 %61, label %62, label %67

62:                                               ; preds = %59
  %63 = load ptr, ptr %11, align 8, !tbaa !12
  %64 = getelementptr inbounds nuw %struct.nid_triple, ptr %63, i32 0, i32 1
  %65 = load i32, ptr %64, align 4, !tbaa !15
  %66 = load ptr, ptr %7, align 8, !tbaa !7
  store i32 %65, ptr %66, align 4, !tbaa !3
  br label %67

67:                                               ; preds = %62, %59
  %68 = load ptr, ptr %8, align 8, !tbaa !7
  %69 = icmp ne ptr %68, null
  br i1 %69, label %70, label %75

70:                                               ; preds = %67
  %71 = load ptr, ptr %11, align 8, !tbaa !12
  %72 = getelementptr inbounds nuw %struct.nid_triple, ptr %71, i32 0, i32 2
  %73 = load i32, ptr %72, align 4, !tbaa !16
  %74 = load ptr, ptr %8, align 8, !tbaa !7
  store i32 %73, ptr %74, align 4, !tbaa !3
  br label %75

75:                                               ; preds = %70, %67
  store i32 1, ptr %5, align 4
  store i32 1, ptr %13, align 4
  br label %76

76:                                               ; preds = %75, %57, %34, %26, %16
  call void @llvm.lifetime.end.p0(i64 4, ptr %12) #4
  call void @llvm.lifetime.end.p0(i64 8, ptr %11) #4
  call void @llvm.lifetime.end.p0(i64 12, ptr %10) #4
  %77 = load i32, ptr %5, align 4
  ret i32 %77
}