; Function Attrs: nounwind uwtable
define internal fastcc range(i32 0, 2) i32 @ossl_obj_find_sigid_algs(i32 noundef %0, ptr noundef writeonly captures(address_is_null) %1, ptr noundef writeonly captures(address_is_null) %2, i32 noundef range(i32 0, 2) %3) unnamed_addr #0 {
  %5 = alloca %struct.nid_triple, align 4
  call void @llvm.lifetime.start.p0(i64 12, ptr nonnull %5) #5
  %6 = icmp eq i32 %0, 0
  br i1 %6, label %40, label %7

7:                                                ; preds = %4
  store i32 %0, ptr %5, align 4, !tbaa !3
  %8 = call ptr @OBJ_bsearch_(ptr noundef nonnull %5, ptr noundef nonnull @sigoid_srt, i32 noundef 56, i32 noundef 12, ptr noundef nonnull @sig_cmp_BSEARCH_CMP_FN) #5
  %9 = icmp eq ptr %8, null
  br i1 %9, label %10, label %32

10:                                               ; preds = %7
  %11 = call i32 @CRYPTO_THREAD_run_once(ptr noundef nonnull @sig_init, ptr noundef nonnull @o_sig_init_ossl_) #5
  %.not.i = icmp eq i32 %11, 0
  %12 = load i32, ptr @o_sig_init_ossl_ret_, align 4
  %.not27 = icmp eq i32 %12, 0
  %.not = select i1 %.not.i, i1 true, i1 %.not27
  br i1 %.not, label %40, label %13

13:                                               ; preds = %10
  %.not22 = icmp eq i32 %3, 0
  br i1 %.not22, label %18, label %14

14:                                               ; preds = %13
  %15 = load ptr, ptr @sig_lock, align 8, !tbaa !8
  %16 = call i32 @CRYPTO_THREAD_read_lock(ptr noundef %15) #5
  %.not23 = icmp eq i32 %16, 0
  br i1 %.not23, label %17, label %18

17:                                               ; preds = %14
  call void @ERR_new() #5
  call void @ERR_set_debug(ptr noundef nonnull @.str, i32 noundef 82, ptr noundef nonnull @__func__.ossl_obj_find_sigid_algs) #5
  call void (i32, i32, ptr, ...) @ERR_set_error(i32 noundef 8, i32 noundef 786703, ptr noundef null) #5
  br label %40

18:                                               ; preds = %14, %13
  %19 = load ptr, ptr @sig_app, align 8, !tbaa !10
  %.not24 = icmp eq ptr %19, null
  br i1 %.not24, label %26, label %20

20:                                               ; preds = %18
  %21 = call i32 @OPENSSL_sk_find(ptr noundef nonnull %19, ptr noundef nonnull %5) #5
  %22 = icmp sgt i32 %21, -1
  br i1 %22, label %23, label %26

23:                                               ; preds = %20
  %24 = load ptr, ptr @sig_app, align 8, !tbaa !10
  %25 = call ptr @OPENSSL_sk_value(ptr noundef %24, i32 noundef range(i32 0, -2147483648) %21) #5
  br label %26

26:                                               ; preds = %20, %23, %18
  %.1 = phi ptr [ %25, %23 ], [ null, %20 ], [ null, %18 ]
  br i1 %.not22, label %30, label %27

27:                                               ; preds = %26
  %28 = load ptr, ptr @sig_lock, align 8, !tbaa !8
  %29 = call i32 @CRYPTO_THREAD_unlock(ptr noundef %28) #5
  br label %30

30:                                               ; preds = %27, %26
  %31 = icmp eq ptr %.1, null
  br i1 %31, label %40, label %32

32:                                               ; preds = %30, %7
  %.014 = phi ptr [ %.1, %30 ], [ %8, %7 ]
  %.not25 = icmp eq ptr %1, null
  br i1 %.not25, label %36, label %33

33:                                               ; preds = %32
  %34 = getelementptr inbounds nuw i8, ptr %.014, i64 4
  %35 = load i32, ptr %34, align 4, !tbaa !12
  store i32 %35, ptr %1, align 4, !tbaa !13
  br label %36

36:                                               ; preds = %33, %32
  %.not26 = icmp eq ptr %2, null
  br i1 %.not26, label %40, label %37

37:                                               ; preds = %36
  %38 = getelementptr inbounds nuw i8, ptr %.014, i64 8
  %39 = load i32, ptr %38, align 4, !tbaa !14
  store i32 %39, ptr %2, align 4, !tbaa !13
  br label %40

40:                                               ; preds = %36, %37, %30, %10, %4, %17
  %.0 = phi i32 [ 0, %17 ], [ 0, %4 ], [ 0, %10 ], [ 0, %30 ], [ 1, %37 ], [ 1, %36 ]
  call void @llvm.lifetime.end.p0(i64 12, ptr nonnull %5) #5
  ret i32 %.0
}